target datalayout = "e-m:e-p270:32:32-p271:32:32-p272:64:64-i64:64-i128:128-f80:128-n8:16:32:64-S128"
target triple = "x86_64-pc-linux-gnu"

%struct.mcclellan = type { i16, i32, i16, i16, i32, i32, i32, i16, i16, i16, i16, i8, i8, i8, i8, [256 x i8], i32, i32, i32, i32 }
%struct.mq = type { ptr, i32, i32, ptr, ptr, i64, ptr, i64, ptr, i64, ptr, i8, ptr, ptr, [10 x %struct.mq_item] }
%struct.mq_item = type { i32, i64, i64 }

; Function Attrs: nounwind uwtable
define hidden signext i8 @nfaExecMcClellan8_inAnyAccept(ptr noundef %0, ptr noundef %1) #0 {
  %3 = alloca ptr, align 8
  %4 = alloca ptr, align 8
  %5 = alloca ptr, align 8
  %6 = alloca i8, align 1
  store ptr %0, ptr %3, align 8
  store ptr %1, ptr %4, align 8
  call void @llvm.lifetime.start.p0(i64 8, ptr %5) #10
  %7 = load ptr, ptr %3, align 8
  %8 = getelementptr inbounds nuw i8, ptr %7, i64 64
  store ptr %8, ptr %5, align 8
  call void @llvm.lifetime.start.p0(i64 1, ptr %6) #10
  %9 = load ptr, ptr %4, align 8
  %10 = getelementptr inbounds nuw %struct.mq, ptr %9, i32 0, i32 3
  %11 = load ptr, ptr %10, align 8
  %12 = load i8, ptr %11, align 1
  store i8 %12, ptr %6, align 1
  br label %13

13:                                               ; preds = %2
  br label %14

14:                                               ; preds = %13
  br label %15

15:                                               ; preds = %14
  %16 = load i8, ptr %6, align 1
  %17 = zext i8 %16 to i32
  %18 = load ptr, ptr %5, align 8
  %19 = getelementptr inbounds nuw %struct.mcclellan, ptr %18, i32 0, i32 8
  %20 = load i16, ptr %19, align 2
  %21 = zext i16 %20 to i32
  %22 = icmp sge i32 %17, %21
  %23 = zext i1 %22 to i32
  %24 = trunc i32 %23 to i8
  call void @llvm.lifetime.end.p0(i64 1, ptr %6) #10
  call void @llvm.lifetime.end.p0(i64 8, ptr %5) #10
  ret i8 %24
}