; Function Attrs: mustprogress nofree norecurse nosync nounwind willreturn memory(read, inaccessiblemem: none) uwtable
define hidden signext range(i8 0, 2) i8 @nfaExecMcClellan8_inAnyAccept(ptr noundef readonly captures(none) %0, ptr noundef readonly captures(none) %1) local_unnamed_addr #4 {
  %3 = getelementptr inbounds nuw i8, ptr %1, i64 16
  %4 = load ptr, ptr %3, align 8
  %5 = load i8, ptr %4, align 1
  %6 = getelementptr inbounds nuw i8, ptr %0, i64 90
  %7 = load i16, ptr %6, align 2
  %8 = zext i8 %5 to i16
  %9 = icmp ule i16 %7, %8
  %10 = zext i1 %9 to i8
  ret i8 %10
}